#include <math.h>
#include <stdio.h>
#include <stdlib.h>
#include <string.h>

int main()
{
	int row,col,i,j,m,p;
	scanf("%d %d",&row,&col);
	int a[100][100];
	for (i=0;i<row;i++)
	{
		for (j=0;j<col;j++)
		{
			scanf("%d",&a[i][j]);
		}
		scanf("\n");
	}


	for (m=0;m<=col+row-2;m++)
	{
		if (m<col)
		{
			for(p=0;p<=row-1&&p<=m;p++)
			{
			
			printf("%d\n",a[p][m-p]);
			}
		}
		
	
		if (m>=col)
		{
			for(p=m-col+1;p<=m&&p<=row-1;p++)
			{
			
			printf("%d\n",a[p][m-p]);
			}
		}

	}

	return 0;
}
	